target datalayout = "e-m:e-p270:32:32-p271:32:32-p272:64:64-i64:64-i128:128-f80:128-n8:16:32:64-S128"
target triple = "x86_64-pc-linux-gnu"

%class.G1CMIsAliveClosure = type { %class.BoolObjectClosure, ptr }
%class.BoolObjectClosure = type { ptr }
%class.BitMap = type { ptr, i64 }
%class.G1MappingChangedListener = type { ptr }
%class.MemRegion = type { ptr, i64 }
%class.G1CMSubjectToDiscoveryClosure = type { %class.BoolObjectClosure, ptr }
%class.G1STWIsAliveClosure = type { %class.BoolObjectClosure, ptr }
%class.TimeInstant = type { %class.CompositeCounterRepresentation }
%class.CompositeCounterRepresentation = type { %class.Representation }
%class.Representation = type { %class.PairRep }
%class.PairRep = type { i64, i64 }
%class.G1CollectedHeap = type { %class.CollectedHeap, ptr, ptr, ptr, ptr, ptr, %class.TimeInstant, %class.G1HeapRegionSet, %class.G1HeapRegionSet, %class.G1MonotonicArenaMemoryStats, %class.G1MonotonicArenaMemoryStats, ptr, %class.G1RegionMappingChangedListener, ptr, %class.G1HeapRegionManager, ptr, %class.G1YoungGCAllocationFailureInjector, ptr, i64, i64, %class.G1EvacStats, %class.G1EvacStats, ptr, i32, i32, %class.G1CollectorState, i32, i32, %class.G1EdenRegions, %class.G1SurvivorRegions, ptr, ptr, ptr, ptr, %class.G1CollectionSet, ptr, %class.G1CardSetConfiguration, %class.G1MonotonicArenaFreePool, ptr, ptr, ptr, ptr, ptr, %class.G1STWIsAliveClosure, %class.G1STWSubjectToDiscoveryClosure, ptr, %class.G1CMIsAliveClosure, %class.G1CMSubjectToDiscoveryClosure, %class.G1HeapRegionAttrBiasedMappedArray }
%class.CollectedHeap = type { ptr, ptr, i64, i64, %class.SoftRefPolicy, %class.MemRegion, i8, i64, i32, i32, i32, i32, ptr, ptr }
%class.SoftRefPolicy = type { i8, i8 }
%class.G1HeapRegionSet = type { %class.G1HeapRegionSetBase.base, [7 x i8] }
%class.G1HeapRegionSetBase.base = type <{ ptr, ptr, i32, [4 x i8], ptr, i8 }>
%class.G1MonotonicArenaMemoryStats = type { [4 x i64], [4 x i64] }
%class.G1RegionMappingChangedListener = type { %class.G1MappingChangedListener }
%class.G1HeapRegionManager = type { ptr, ptr, %class.G1CommittedRegionMap, i32, [4 x i8], %class.G1HeapRegionTable, ptr, ptr, %class.G1FreeRegionList }
%class.G1CommittedRegionMap = type { ptr, %class.CHeapBitMap, %class.CHeapBitMap, i32, i32 }
%class.CHeapBitMap = type <{ %class.GrowableBitMap, i8, [7 x i8] }>
%class.GrowableBitMap = type { %class.BitMap }
%class.G1HeapRegionTable = type { %class.G1BiasedMappedArray.base, [4 x i8] }
%class.G1BiasedMappedArray.base = type { %class.G1BiasedMappedArrayBase.base }
%class.G1BiasedMappedArrayBase.base = type <{ ptr, ptr, ptr, i64, ptr, i64, i32 }>
%class.G1FreeRegionList = type { %class.G1HeapRegionSetBase.base, ptr, ptr, ptr, ptr }
%class.G1YoungGCAllocationFailureInjector = type { i8 }
%class.G1EvacStats = type { %class.PLABStats, i64, i64, %class.AdaptiveWeightedAverage, i64, i32, i64, i64, i64, i64, i64 }
%class.PLABStats = type { ptr, ptr, i64, i64, i64, i64 }
%class.AdaptiveWeightedAverage = type { float, i32, i32, i8, float }
%class.G1CollectorState = type { i8, i8, i8, i8, i8, i8, i8 }
%class.G1EdenRegions = type { i32, i64, %class.G1RegionsOnNodes }
%class.G1RegionsOnNodes = type { ptr, ptr }
%class.G1SurvivorRegions = type { ptr, i64, %class.G1RegionsOnNodes }
%class.G1CollectionSet = type { ptr, ptr, %class.G1CollectionSetCandidates, ptr, i32, i32, i32, i32, i32, %class.G1CollectionCandidateRegionList, i32, i64 }
%class.G1CollectionSetCandidates = type { [8 x i8], %class.G1CollectionCandidateList, %class.G1CollectionCandidateList, ptr, i32, i32 }
%class.G1CollectionCandidateList = type { %class.GrowableArray }
%class.GrowableArray = type { %class.GrowableArrayWithAllocator, %class.GrowableArrayMetadata }
%class.GrowableArrayWithAllocator = type { %class.GrowableArrayView }
%class.GrowableArrayView = type { %class.GrowableArrayBase, ptr }
%class.GrowableArrayBase = type { i32, i32 }
%class.GrowableArrayMetadata = type { i64 }
%class.G1CollectionCandidateRegionList = type { %class.GrowableArray.2 }
%class.GrowableArray.2 = type { %class.GrowableArrayWithAllocator.3, %class.GrowableArrayMetadata }
%class.GrowableArrayWithAllocator.3 = type { %class.GrowableArrayView.4 }
%class.GrowableArrayView.4 = type { %class.GrowableArrayBase, ptr }
%class.G1CardSetConfiguration = type { i32, i32, i32, i32, i32, i32, i32, i32, i32, i32, i32, ptr }
%class.G1MonotonicArenaFreePool = type { i32, ptr }
%class.G1STWSubjectToDiscoveryClosure = type { %class.BoolObjectClosure, ptr }
%class.G1HeapRegionAttrBiasedMappedArray = type { %class.G1BiasedMappedArray.base.6, [4 x i8] }
%class.G1BiasedMappedArray.base.6 = type { %class.G1BiasedMappedArrayBase.base }
%struct.G1HeapRegionAttr = type { i8, i8, i8 }
%class.G1BiasedMappedArrayBase = type <{ ptr, ptr, ptr, i64, ptr, i64, i32, [4 x i8] }>

@g_assert_poison = external global ptr, align 8
@.str.29 = private unnamed_addr constant [44 x i8] c"src/hotspot/share/gc/g1/g1CollectedHeap.cpp\00", align 1
@.str.75 = private unnamed_addr constant [38 x i8] c"guarantee(_eden.length() == 0) failed\00", align 1
@.str.76 = private unnamed_addr constant [30 x i8] c"eden should have been cleared\00", align 1

; Function Attrs: mustprogress nounwind uwtable
define linkonce_odr hidden noundef ptr @_ZNK19G1BiasedMappedArrayI16G1HeapRegionAttrE4baseEv(ptr noundef nonnull align 8 dereferenceable(52) %0) #1 comdat align 2 {
  %2 = alloca ptr, align 8
  store ptr %0, ptr %2, align 8
  %3 = load ptr, ptr %2, align 8
  %4 = getelementptr inbounds %class.G1BiasedMappedArrayBase, ptr %3, i32 0, i32 2
  %5 = load ptr, ptr %4, align 8
  ret ptr %5
}

; Function Attrs: mustprogress nounwind uwtable
define linkonce_odr hidden void @_ZNK23G1BiasedMappedArrayBase12verify_indexEm(ptr noundef nonnull align 8 dereferenceable(52) %0, i64 noundef %1) #1 comdat align 2 {
  %3 = alloca ptr, align 8
  %4 = alloca i64, align 8
  store ptr %0, ptr %3, align 8
  store i64 %1, ptr %4, align 8
  ret void
}

; Function Attrs: mustprogress nounwind uwtable
define linkonce_odr hidden void @_ZN19G1BiasedMappedArrayI16G1HeapRegionAttrE12set_by_indexEmS0_(ptr noundef nonnull align 8 dereferenceable(52) %0, i64 noundef %1, i24 %2) #1 comdat align 2 {
  %4 = alloca %struct.G1HeapRegionAttr, align 1
  %5 = alloca i24, align 4
  %6 = alloca ptr, align 8
  %7 = alloca i64, align 8
  store i24 %2, ptr %5, align 4
  call void @llvm.memcpy.p0.p0.i64(ptr align 1 %4, ptr align 4 %5, i64 3, i1 false)
  store ptr %0, ptr %6, align 8
  store i64 %1, ptr %7, align 8
  %8 = load ptr, ptr %6, align 8
  %9 = load i64, ptr %7, align 8
  call void @_ZNK23G1BiasedMappedArrayBase12verify_indexEm(ptr noundef nonnull align 8 dereferenceable(52) %8, i64 noundef %9)
  %10 = call noundef ptr @_ZNK19G1BiasedMappedArrayI16G1HeapRegionAttrE4baseEv(ptr noundef nonnull align 8 dereferenceable(52) %8)
  %11 = load i64, ptr %7, align 8
  %12 = getelementptr inbounds %struct.G1HeapRegionAttr, ptr %10, i64 %11
  call void @llvm.memcpy.p0.p0.i64(ptr align 1 %12, ptr align 1 %4, i64 3, i1 false)
  ret void
}

; Function Attrs: mustprogress nounwind uwtable
define linkonce_odr hidden noundef i64 @_ZNK23G1BiasedMappedArrayBase6lengthEv(ptr noundef nonnull align 8 dereferenceable(52) %0) #1 comdat align 2 {
  %2 = alloca ptr, align 8
  store ptr %0, ptr %2, align 8
  %3 = load ptr, ptr %2, align 8
  %4 = getelementptr inbounds %class.G1BiasedMappedArrayBase, ptr %3, i32 0, i32 3
  %5 = load i64, ptr %4, align 8
  ret i64 %5
}

; Function Attrs: mustprogress nounwind uwtable
define linkonce_odr hidden void @_ZN19G1BiasedMappedArrayI16G1HeapRegionAttrE5clearEv(ptr noundef nonnull align 8 dereferenceable(52) %0) #1 comdat align 2 {
  %2 = alloca ptr, align 8
  %3 = alloca %struct.G1HeapRegionAttr, align 1
  %4 = alloca i24, align 4
  %5 = alloca i64, align 8
  %6 = alloca %struct.G1HeapRegionAttr, align 1
  %7 = alloca i24, align 4
  store ptr %0, ptr %2, align 8
  %8 = load ptr, ptr %2, align 8
  %9 = load ptr, ptr %8, align 8
  %10 = getelementptr inbounds ptr, ptr %9, i64 2
  %11 = load ptr, ptr %10, align 8
  %12 = call i24 %11(ptr noundef nonnull align 8 dereferenceable(52) %8)
  store i24 %12, ptr %4, align 4
  call void @llvm.memcpy.p0.p0.i64(ptr align 1 %3, ptr align 4 %4, i64 3, i1 false)
  store i64 0, ptr %5, align 8
  br label %13

13:                                               ; preds = %20, %1
  %14 = load i64, ptr %5, align 8
  %15 = call noundef i64 @_ZNK23G1BiasedMappedArrayBase6lengthEv(ptr noundef nonnull align 8 dereferenceable(52) %8)
  %16 = icmp ult i64 %14, %15
  br i1 %16, label %17, label %23

17:                                               ; preds = %13
  %18 = load i64, ptr %5, align 8
  call void @llvm.memcpy.p0.p0.i64(ptr align 1 %6, ptr align 1 %3, i64 3, i1 false)
  call void @llvm.memcpy.p0.p0.i64(ptr align 4 %7, ptr align 1 %6, i64 3, i1 false)
  %19 = load i24, ptr %7, align 4
  call void @_ZN19G1BiasedMappedArrayI16G1HeapRegionAttrE12set_by_indexEmS0_(ptr noundef nonnull align 8 dereferenceable(52) %8, i64 noundef %18, i24 %19)
  br label %20

20:                                               ; preds = %17
  %21 = load i64, ptr %5, align 8
  %22 = add i64 %21, 1
  store i64 %22, ptr %5, align 8
  br label %13, !llvm.loop !31

23:                                               ; preds = %13
  ret void
}

; Function Attrs: mustprogress nounwind uwtable
define linkonce_odr hidden void @_ZN33G1HeapRegionAttrBiasedMappedArray5clearEv(ptr noundef nonnull align 8 dereferenceable(52) %0) #1 comdat align 2 {
  %2 = alloca ptr, align 8
  store ptr %0, ptr %2, align 8
  %3 = load ptr, ptr %2, align 8
  call void @_ZN19G1BiasedMappedArrayI16G1HeapRegionAttrE5clearEv(ptr noundef nonnull align 8 dereferenceable(52) %3)
  ret void
}

; Function Attrs: mustprogress nounwind uwtable
define linkonce_odr hidden void @_ZN16G1ConcurrentMark29verify_no_collection_set_oopsEv(ptr noundef nonnull align 8 dereferenceable(1849) %0) #1 comdat align 2 {
  %2 = alloca ptr, align 8
  store ptr %0, ptr %2, align 8
  ret void
}

; Function Attrs: mustprogress nounwind uwtable
define linkonce_odr hidden noundef ptr @_ZN15G1CollectedHeap8survivorEv(ptr noundef nonnull align 8 dereferenceable(1488) %0) #1 comdat align 2 {
  %2 = alloca ptr, align 8
  store ptr %0, ptr %2, align 8
  %3 = load ptr, ptr %2, align 8
  %4 = getelementptr inbounds %class.G1CollectedHeap, ptr %3, i32 0, i32 29
  ret ptr %4
}

; Function Attrs: mustprogress nounwind uwtable
define linkonce_odr hidden noundef ptr @_ZNK15G1CollectedHeap6policyEv(ptr noundef nonnull align 8 dereferenceable(1488) %0) #1 comdat align 2 {
  %2 = alloca ptr, align 8
  store ptr %0, ptr %2, align 8
  %3 = load ptr, ptr %2, align 8
  %4 = getelementptr inbounds %class.G1CollectedHeap, ptr %3, i32 0, i32 32
  %5 = load ptr, ptr %4, align 8
  ret ptr %5
}

; Function Attrs: mustprogress nounwind uwtable
define linkonce_odr hidden noundef i32 @_ZNK13G1EdenRegions6lengthEv(ptr noundef nonnull align 8 dereferenceable(32) %0) #1 comdat align 2 {
  %2 = alloca ptr, align 8
  store ptr %0, ptr %2, align 8
  %3 = load ptr, ptr %2, align 8
  %4 = getelementptr inbounds %class.G1EdenRegions, ptr %3, i32 0, i32 0
  %5 = load i32, ptr %4, align 8
  ret i32 %5
}

; Function Attrs: mustprogress nounwind uwtable
define linkonce_odr hidden void @_ZN15G1CollectedHeap17clear_region_attrEv(ptr noundef nonnull align 8 dereferenceable(1488) %0) #1 comdat align 2 {
  %2 = alloca ptr, align 8
  store ptr %0, ptr %2, align 8
  %3 = load ptr, ptr %2, align 8
  %4 = getelementptr inbounds %class.G1CollectedHeap, ptr %3, i32 0, i32 48
  call void @_ZN33G1HeapRegionAttrBiasedMappedArray5clearEv(ptr noundef nonnull align 8 dereferenceable(52) %4)
  ret void
}

; Function Attrs: mustprogress nounwind uwtable
define linkonce_odr hidden noundef ptr @_ZN15G1CollectedHeap14collection_setEv(ptr noundef nonnull align 8 dereferenceable(1488) %0) #1 comdat align 2 {
  %2 = alloca ptr, align 8
  store ptr %0, ptr %2, align 8
  %3 = load ptr, ptr %2, align 8
  %4 = getelementptr inbounds %class.G1CollectedHeap, ptr %3, i32 0, i32 34
  ret ptr %4
}

; Function Attrs: mustprogress nounwind uwtable
define hidden void @_ZN15G1CollectedHeap24start_new_collection_setEv(ptr noundef nonnull align 8 dereferenceable(1488) %0) #1 align 2 {
  %2 = alloca ptr, align 8
  store ptr %0, ptr %2, align 8
  %3 = load ptr, ptr %2, align 8
  %4 = call noundef ptr @_ZN15G1CollectedHeap14collection_setEv(ptr noundef nonnull align 8 dereferenceable(1488) %3)
  call void @_ZN15G1CollectionSet26start_incremental_buildingEv(ptr noundef nonnull align 8 dereferenceable(160) %4)
  call void @_ZN15G1CollectedHeap17clear_region_attrEv(ptr noundef nonnull align 8 dereferenceable(1488) %3)
  br label %5

5:                                                ; preds = %1
  %6 = getelementptr inbounds %class.G1CollectedHeap, ptr %3, i32 0, i32 28
  %7 = call noundef i32 @_ZNK13G1EdenRegions6lengthEv(ptr noundef nonnull align 8 dereferenceable(32) %6)
  %8 = icmp eq i32 %7, 0
  br i1 %8, label %11, label %9

9:                                                ; preds = %5
  %10 = load ptr, ptr @g_assert_poison, align 8
  store i8 88, ptr %10, align 1
  call void (ptr, i32, ptr, ptr, ...) @_Z15report_vm_errorPKciS0_S0_z(ptr noundef @.str.29, i32 noundef 2331, ptr noundef @.str.75, ptr noundef @.str.76) #11
  unreachable

11:                                               ; preds = %5
  br label %12

12:                                               ; preds = %11
  %13 = call noundef ptr @_ZNK15G1CollectedHeap6policyEv(ptr noundef nonnull align 8 dereferenceable(1488) %3)
  %14 = call noundef ptr @_ZN15G1CollectedHeap8survivorEv(ptr noundef nonnull align 8 dereferenceable(1488) %3)
  call void @_ZN8G1Policy26transfer_survivors_to_csetEPK17G1SurvivorRegions(ptr noundef nonnull align 8 dereferenceable(552) %13, ptr noundef %14)
  %15 = getelementptr inbounds %class.G1CollectedHeap, ptr %3, i32 0, i32 38
  %16 = load ptr, ptr %15, align 8
  call void @_ZN16G1ConcurrentMark29verify_no_collection_set_oopsEv(ptr noundef nonnull align 8 dereferenceable(1849) %16)
  ret void
}