; Function Attrs: mustprogress nounwind uwtable
define hidden void @_ZN15G1CollectedHeap24start_new_collection_setEv(ptr noundef nonnull align 8 dereferenceable(1488) %0) local_unnamed_addr #0 align 2 {
  %2 = getelementptr inbounds i8, ptr %0, i64 1080
  tail call void @_ZN15G1CollectionSet26start_incremental_buildingEv(ptr noundef nonnull align 8 dereferenceable(160) %2) #23
  %3 = getelementptr inbounds i8, ptr %0, i64 1432
  %4 = load ptr, ptr %3, align 8
  %5 = getelementptr inbounds i8, ptr %4, i64 16
  %6 = load ptr, ptr %5, align 8
  %7 = tail call i24 %6(ptr noundef nonnull align 8 dereferenceable(52) %3) #23
  %8 = getelementptr inbounds i8, ptr %0, i64 1456
  %9 = load i64, ptr %8, align 8
  %.not.i.i.i = icmp eq i64 %9, 0
  br i1 %.not.i.i.i, label %_ZN15G1CollectedHeap17clear_region_attrEv.exit, label %.lr.ph.i.i.i

.lr.ph.i.i.i:                                     ; preds = %1
  %10 = getelementptr inbounds i8, ptr %0, i64 1448
  br label %11

11:                                               ; preds = %11, %.lr.ph.i.i.i
  %.05.i.i.i = phi i64 [ 0, %.lr.ph.i.i.i ], [ %14, %11 ]
  %12 = load ptr, ptr %10, align 8
  %13 = getelementptr inbounds %struct.G1HeapRegionAttr, ptr %12, i64 %.05.i.i.i
  store i24 %7, ptr %13, align 1
  %14 = add nuw i64 %.05.i.i.i, 1
  %15 = load i64, ptr %8, align 8
  %16 = icmp ult i64 %14, %15
  br i1 %16, label %11, label %_ZN15G1CollectedHeap17clear_region_attrEv.exit, !llvm.loop !18

_ZN15G1CollectedHeap17clear_region_attrEv.exit:   ; preds = %11, %1
  %17 = getelementptr inbounds i8, ptr %0, i64 984
  %18 = load i32, ptr %17, align 8
  %19 = icmp eq i32 %18, 0
  br i1 %19, label %22, label %20

20:                                               ; preds = %_ZN15G1CollectedHeap17clear_region_attrEv.exit
  %21 = load ptr, ptr @g_assert_poison, align 8
  store i8 88, ptr %21, align 1
  tail call void (ptr, i32, ptr, ptr, ...) @_Z15report_vm_errorPKciS0_S0_z(ptr noundef nonnull @.str.29, i32 noundef 2331, ptr noundef nonnull @.str.75, ptr noundef nonnull @.str.76) #24
  unreachable

22:                                               ; preds = %_ZN15G1CollectedHeap17clear_region_attrEv.exit
  %23 = getelementptr inbounds i8, ptr %0, i64 1064
  %24 = load ptr, ptr %23, align 8
  %25 = getelementptr inbounds i8, ptr %0, i64 1016
  tail call void @_ZN8G1Policy26transfer_survivors_to_csetEPK17G1SurvivorRegions(ptr noundef nonnull align 8 dereferenceable(552) %24, ptr noundef nonnull %25) #23
  ret void
}